target datalayout = "e-m:e-p270:32:32-p271:32:32-p272:64:64-i64:64-i128:128-f80:128-n8:16:32:64-S128"
target triple = "x86_64-pc-linux-gnu"

@H5_libinit_g = external global i8, align 1
@H5_libterm_g = external global i8, align 1
@H5T_NATIVE_SCHAR_g = external global i64, align 8

; Function Attrs: nounwind uwtable
define i32 @H5LTmake_dataset_char(i64 noundef %0, ptr noundef %1, i32 noundef %2, ptr noundef %3, ptr noundef %4) #0 {
  %6 = alloca i64, align 8
  %7 = alloca ptr, align 8
  %8 = alloca i32, align 4
  %9 = alloca ptr, align 8
  %10 = alloca ptr, align 8
  store i64 %0, ptr %6, align 8, !tbaa !3
  store ptr %1, ptr %7, align 8, !tbaa !7
  store i32 %2, ptr %8, align 4, !tbaa !10
  store ptr %3, ptr %9, align 8, !tbaa !12
  store ptr %4, ptr %10, align 8, !tbaa !7
  %11 = load i64, ptr %6, align 8, !tbaa !3
  %12 = load ptr, ptr %7, align 8, !tbaa !7
  %13 = load i32, ptr %8, align 4, !tbaa !10
  %14 = load ptr, ptr %9, align 8, !tbaa !12
  %15 = load i8, ptr @H5_libinit_g, align 1, !tbaa !16, !range !18, !noundef !19
  %16 = trunc i8 %15 to i1
  br i1 %16, label %21, label %17

17:                                               ; preds = %5
  %18 = load i8, ptr @H5_libterm_g, align 1, !tbaa !16, !range !18, !noundef !19
  %19 = trunc i8 %18 to i1
  %20 = xor i1 %19, true
  br label %21

21:                                               ; preds = %17, %5
  %22 = phi i1 [ false, %5 ], [ %20, %17 ]
  %23 = xor i1 %22, true
  %24 = xor i1 %23, true
  %25 = zext i1 %24 to i32
  %26 = sext i32 %25 to i64
  %27 = call i64 @llvm.expect.i64(i64 %26, i64 0)
  %28 = icmp ne i64 %27, 0
  br i1 %28, label %29, label %31

29:                                               ; preds = %21
  %30 = call i32 @H5open()
  br label %32

31:                                               ; preds = %21
  br label %32

32:                                               ; preds = %31, %29
  %33 = load i64, ptr @H5T_NATIVE_SCHAR_g, align 8, !tbaa !3
  %34 = load ptr, ptr %10, align 8, !tbaa !7
  %35 = call i32 @H5LT_make_dataset_numerical(i64 noundef %11, ptr noundef %12, i32 noundef %13, ptr noundef %14, i64 noundef %33, ptr noundef %34)
  ret i32 %35
}