; Function Attrs: nounwind uwtable
define range(i32 -1, 1) i32 @H5LTmake_dataset_char(i64 noundef %0, ptr noundef %1, i32 noundef %2, ptr noundef %3, ptr noundef %4) local_unnamed_addr #0 {
  %6 = load i8, ptr @H5_libinit_g, align 1, !tbaa !10, !range !12, !noundef !13
  %7 = trunc nuw i8 %6 to i1
  %8 = load i8, ptr @H5_libterm_g, align 1, !range !12
  %9 = trunc nuw i8 %8 to i1
  %10 = select i1 %7, i1 true, i1 %9
  br i1 %10, label %13, label %11, !prof !14

11:                                               ; preds = %5
  %12 = tail call i32 @H5open() #20
  br label %13

13:                                               ; preds = %5, %11
  %14 = load i64, ptr @H5T_NATIVE_SCHAR_g, align 8, !tbaa !15
  %15 = tail call fastcc i32 @H5LT_make_dataset_numerical(i64 noundef %0, ptr noundef %1, i32 noundef %2, ptr noundef %3, i64 noundef %14, ptr noundef %4)
  ret i32 %15
}